target datalayout = "e-m:e-p270:32:32-p271:32:32-p272:64:64-i64:64-i128:128-f80:128-n8:16:32:64-S128"
target triple = "x86_64-pc-linux-gnu"

@glad_glGetShaderiv = external global ptr, align 8
@glad_glCreateShader = external global ptr, align 8
@glad_glShaderSource = external global ptr, align 8
@glad_glCompileShader = external global ptr, align 8
@.str.10 = private unnamed_addr constant [36 x i8] c"Error compiling shader of type %d!\0A\00", align 1
@.str.11 = private unnamed_addr constant [3 x i8] c"rb\00", align 1
@stderr = external global ptr, align 8
@.str.12 = private unnamed_addr constant [18 x i8] c"Error opening %s\0A\00", align 1

; Function Attrs: mustprogress uwtable
define internal noundef i32 @_ZL21sCreateShaderFromFilePKcj(ptr noundef %0, i32 noundef %1) #0 {
  %3 = alloca i32, align 4
  %4 = alloca ptr, align 8
  %5 = alloca i32, align 4
  %6 = alloca ptr, align 8
  %7 = alloca i32, align 4
  %8 = alloca i64, align 8
  %9 = alloca ptr, align 8
  %10 = alloca i64, align 8
  %11 = alloca i32, align 4
  %12 = alloca [1 x ptr], align 8
  %13 = alloca i32, align 4
  store ptr %0, ptr %4, align 8, !tbaa !8
  store i32 %1, ptr %5, align 4, !tbaa !10
  call void @llvm.lifetime.start.p0(i64 8, ptr %6) #5
  %14 = load ptr, ptr %4, align 8, !tbaa !8
  %15 = call noalias ptr @fopen(ptr noundef %14, ptr noundef @.str.11)
  store ptr %15, ptr %6, align 8, !tbaa !12
  %16 = load ptr, ptr %6, align 8, !tbaa !12
  %17 = icmp eq ptr %16, null
  br i1 %17, label %18, label %22

18:                                               ; preds = %2
  %19 = load ptr, ptr @stderr, align 8, !tbaa !12
  %20 = load ptr, ptr %4, align 8, !tbaa !8
  %21 = call i32 (ptr, ptr, ...) @fprintf(ptr noundef %19, ptr noundef @.str.12, ptr noundef %20) #5
  store i32 0, ptr %3, align 4
  store i32 1, ptr %7, align 4
  br label %62

22:                                               ; preds = %2
  %23 = load ptr, ptr %6, align 8, !tbaa !12
  %24 = call i32 @fseek(ptr noundef %23, i64 noundef 0, i32 noundef 2)
  call void @llvm.lifetime.start.p0(i64 8, ptr %8) #5
  %25 = load ptr, ptr %6, align 8, !tbaa !12
  %26 = call i64 @ftell(ptr noundef %25)
  store i64 %26, ptr %8, align 8, !tbaa !14
  %27 = load ptr, ptr %6, align 8, !tbaa !12
  %28 = call i32 @fseek(ptr noundef %27, i64 noundef 0, i32 noundef 0)
  call void @llvm.lifetime.start.p0(i64 8, ptr %9) #5
  %29 = load i64, ptr %8, align 8, !tbaa !14
  %30 = add nsw i64 %29, 1
  %31 = call noalias ptr @malloc(i64 noundef %30) #6
  store ptr %31, ptr %9, align 8, !tbaa !8
  call void @llvm.lifetime.start.p0(i64 8, ptr %10) #5
  %32 = load ptr, ptr %9, align 8, !tbaa !8
  %33 = load i64, ptr %8, align 8, !tbaa !14
  %34 = load ptr, ptr %6, align 8, !tbaa !12
  %35 = call i64 @fread(ptr noundef %32, i64 noundef %33, i64 noundef 1, ptr noundef %34)
  store i64 %35, ptr %10, align 8, !tbaa !14
  %36 = load ptr, ptr %6, align 8, !tbaa !12
  %37 = call i32 @fclose(ptr noundef %36)
  %38 = load ptr, ptr %9, align 8, !tbaa !8
  %39 = load i64, ptr %8, align 8, !tbaa !14
  %40 = getelementptr inbounds i8, ptr %38, i64 %39
  store i8 0, ptr %40, align 1, !tbaa !16
  call void @llvm.lifetime.start.p0(i64 4, ptr %11) #5
  %41 = load ptr, ptr @glad_glCreateShader, align 8, !tbaa !4
  %42 = load i32, ptr %5, align 4, !tbaa !10
  %43 = call i32 %41(i32 noundef %42)
  store i32 %43, ptr %11, align 4, !tbaa !10
  call void @llvm.lifetime.start.p0(i64 8, ptr %12) #5
  %44 = load ptr, ptr %9, align 8, !tbaa !8
  store ptr %44, ptr %12, align 8, !tbaa !8
  %45 = load ptr, ptr @glad_glShaderSource, align 8, !tbaa !4
  %46 = load i32, ptr %11, align 4, !tbaa !10
  %47 = getelementptr inbounds [1 x ptr], ptr %12, i64 0, i64 0
  call void %45(i32 noundef %46, i32 noundef 1, ptr noundef %47, ptr noundef null)
  %48 = load ptr, ptr @glad_glCompileShader, align 8, !tbaa !4
  %49 = load i32, ptr %11, align 4, !tbaa !10
  call void %48(i32 noundef %49)
  call void @llvm.lifetime.start.p0(i64 4, ptr %13) #5
  store i32 0, ptr %13, align 4, !tbaa !10
  %50 = load ptr, ptr @glad_glGetShaderiv, align 8, !tbaa !4
  %51 = load i32, ptr %11, align 4, !tbaa !10
  call void %50(i32 noundef %51, i32 noundef 35713, ptr noundef %13)
  %52 = load i32, ptr %13, align 4, !tbaa !10
  %53 = icmp eq i32 %52, 0
  br i1 %53, label %54, label %59

54:                                               ; preds = %22
  %55 = load ptr, ptr @stderr, align 8, !tbaa !12
  %56 = load i32, ptr %5, align 4, !tbaa !10
  %57 = call i32 (ptr, ptr, ...) @fprintf(ptr noundef %55, ptr noundef @.str.10, i32 noundef %56) #5
  %58 = load i32, ptr %11, align 4, !tbaa !10
  call void @_Z10PrintLogGLj(i32 noundef %58)
  br label %59

59:                                               ; preds = %54, %22
  %60 = load ptr, ptr %9, align 8, !tbaa !8
  call void @free(ptr noundef %60) #5
  %61 = load i32, ptr %11, align 4, !tbaa !10
  store i32 %61, ptr %3, align 4
  store i32 1, ptr %7, align 4
  call void @llvm.lifetime.end.p0(i64 4, ptr %13) #5
  call void @llvm.lifetime.end.p0(i64 8, ptr %12) #5
  call void @llvm.lifetime.end.p0(i64 4, ptr %11) #5
  call void @llvm.lifetime.end.p0(i64 8, ptr %10) #5
  call void @llvm.lifetime.end.p0(i64 8, ptr %9) #5
  call void @llvm.lifetime.end.p0(i64 8, ptr %8) #5
  br label %62

62:                                               ; preds = %59, %18
  call void @llvm.lifetime.end.p0(i64 8, ptr %6) #5
  %63 = load i32, ptr %3, align 4
  ret i32 %63
}