; Function Attrs: mustprogress uwtable
define internal fastcc noundef i32 @_ZL21sCreateShaderFromFilePKcj(ptr noundef %0, i32 noundef range(i32 35632, 35634) %1) unnamed_addr #0 {
  %3 = alloca [1 x ptr], align 8
  %4 = alloca i32, align 4
  %5 = tail call noalias ptr @fopen(ptr noundef %0, ptr noundef nonnull @.str.11)
  %6 = icmp eq ptr %5, null
  br i1 %6, label %7, label %10

7:                                                ; preds = %2
  %8 = load ptr, ptr @stderr, align 8, !tbaa !12
  %9 = tail call i32 (ptr, ptr, ...) @fprintf(ptr noundef %8, ptr noundef nonnull @.str.12, ptr noundef %0) #8
  br label %30

10:                                               ; preds = %2
  %11 = tail call i32 @fseek(ptr noundef nonnull %5, i64 noundef 0, i32 noundef 2)
  %12 = tail call i64 @ftell(ptr noundef nonnull %5)
  %13 = tail call i32 @fseek(ptr noundef nonnull %5, i64 noundef 0, i32 noundef 0)
  %14 = add nsw i64 %12, 1
  %15 = tail call noalias ptr @malloc(i64 noundef %14) #7
  %16 = tail call i64 @fread(ptr noundef %15, i64 noundef %12, i64 noundef 1, ptr noundef nonnull %5)
  %17 = tail call i32 @fclose(ptr noundef nonnull %5)
  %18 = getelementptr inbounds i8, ptr %15, i64 %12
  store i8 0, ptr %18, align 1, !tbaa !14
  %19 = load ptr, ptr @glad_glCreateShader, align 8, !tbaa !4
  %20 = tail call i32 %19(i32 noundef %1)
  call void @llvm.lifetime.start.p0(i64 8, ptr nonnull %3) #6
  store ptr %15, ptr %3, align 8, !tbaa !10
  %21 = load ptr, ptr @glad_glShaderSource, align 8, !tbaa !4
  call void %21(i32 noundef %20, i32 noundef 1, ptr noundef nonnull %3, ptr noundef null)
  %22 = load ptr, ptr @glad_glCompileShader, align 8, !tbaa !4
  call void %22(i32 noundef %20)
  call void @llvm.lifetime.start.p0(i64 4, ptr nonnull %4) #6
  store i32 0, ptr %4, align 4, !tbaa !8
  %23 = load ptr, ptr @glad_glGetShaderiv, align 8, !tbaa !4
  call void %23(i32 noundef %20, i32 noundef 35713, ptr noundef nonnull %4)
  %24 = load i32, ptr %4, align 4, !tbaa !8
  %25 = icmp eq i32 %24, 0
  br i1 %25, label %26, label %29

26:                                               ; preds = %10
  %27 = load ptr, ptr @stderr, align 8, !tbaa !12
  %28 = call i32 (ptr, ptr, ...) @fprintf(ptr noundef %27, ptr noundef nonnull @.str.10, i32 noundef %1) #8
  call void @_Z10PrintLogGLj(i32 noundef %20)
  br label %29

29:                                               ; preds = %26, %10
  call void @free(ptr noundef nonnull %15) #6
  call void @llvm.lifetime.end.p0(i64 4, ptr nonnull %4) #6
  call void @llvm.lifetime.end.p0(i64 8, ptr nonnull %3) #6
  br label %30

30:                                               ; preds = %29, %7
  %.0 = phi i32 [ 0, %7 ], [ %20, %29 ]
  ret i32 %.0
}